; ModuleID = 'source-C-CXX/27/1878.c'
source_filename = "source-C-CXX/27/1878.c"
target datalayout = "e-m:e-p270:32:32-p271:32:32-p272:64:64-i64:64-f80:128-n8:16:32:64-S128"
target triple = "x86_64-pc-linux-gnu"

@.str = private unnamed_addr constant [3 x i8] c"%d\00", align 1
@.str.1 = private unnamed_addr constant [4 x i8] c",%d\00", align 1

; Function Attrs: nounwind sspstrong uwtable
define dso_local i32 @main() local_unnamed_addr #0 {
  %1 = alloca [5000 x i8], align 16
  %2 = getelementptr inbounds [5000 x i8], [5000 x i8]* %1, i64 0, i64 0
  call void @llvm.lifetime.start.p0i8(i64 5000, i8* nonnull %2) #5
  %3 = call i32 (i8*, ...) bitcast (i32 (...)* @gets to i32 (i8*, ...)*)(i8* nonnull %2) #5
  %4 = call i64 @strlen(i8* noundef nonnull %2) #6
  %5 = trunc i64 %4 to i32
  %6 = icmp slt i32 %5, 0
  br i1 %6, label %42, label %7

7:                                                ; preds = %0
  %8 = add i64 %4, 1
  %9 = and i64 %8, 4294967295
  br label %10

10:                                               ; preds = %7, %37
  %11 = phi i64 [ 0, %7 ], [ %38, %37 ]
  %12 = phi i32 [ 0, %7 ], [ %40, %37 ]
  %13 = phi i32 [ 0, %7 ], [ %39, %37 ]
  %14 = getelementptr inbounds [5000 x i8], [5000 x i8]* %1, i64 0, i64 %11
  %15 = load i8, i8* %14, align 1, !tbaa !5
  %16 = icmp eq i8 %15, 32
  br i1 %16, label %27, label %17

17:                                               ; preds = %10
  %18 = add nsw i32 %13, 1
  %19 = add nuw nsw i64 %11, 1
  %20 = getelementptr inbounds [5000 x i8], [5000 x i8]* %1, i64 0, i64 %19
  %21 = load i8, i8* %20, align 1, !tbaa !5
  %22 = icmp eq i8 %21, 0
  br i1 %22, label %23, label %37

23:                                               ; preds = %17
  %24 = icmp eq i32 %12, 0
  %25 = select i1 %24, i8* getelementptr inbounds ([3 x i8], [3 x i8]* @.str, i64 0, i64 0), i8* getelementptr inbounds ([4 x i8], [4 x i8]* @.str.1, i64 0, i64 0)
  %26 = call i32 (i8*, ...) @printf(i8* nonnull dereferenceable(1) %25, i32 %18)
  br label %42

27:                                               ; preds = %10
  %28 = add nuw nsw i64 %11, 1
  %29 = getelementptr inbounds [5000 x i8], [5000 x i8]* %1, i64 0, i64 %28
  %30 = load i8, i8* %29, align 1, !tbaa !5
  %31 = icmp eq i8 %30, 32
  br i1 %31, label %37, label %32

32:                                               ; preds = %27
  %33 = icmp eq i32 %12, 0
  %34 = add nsw i32 %12, 1
  %35 = select i1 %33, i8* getelementptr inbounds ([3 x i8], [3 x i8]* @.str, i64 0, i64 0), i8* getelementptr inbounds ([4 x i8], [4 x i8]* @.str.1, i64 0, i64 0)
  %36 = call i32 (i8*, ...) @printf(i8* nonnull dereferenceable(1) %35, i32 %13)
  br label %37

37:                                               ; preds = %32, %17, %27
  %38 = phi i64 [ %19, %17 ], [ %28, %27 ], [ %28, %32 ]
  %39 = phi i32 [ %18, %17 ], [ %13, %27 ], [ 0, %32 ]
  %40 = phi i32 [ %12, %17 ], [ %12, %27 ], [ %34, %32 ]
  %41 = icmp eq i64 %38, %9
  br i1 %41, label %42, label %10, !llvm.loop !8

42:                                               ; preds = %37, %23, %0
  call void @llvm.lifetime.end.p0i8(i64 5000, i8* nonnull %2) #5
  ret i32 0
}

; Function Attrs: argmemonly mustprogress nofree nosync nounwind willreturn
declare void @llvm.lifetime.start.p0i8(i64 immarg, i8* nocapture) #1

declare i32 @gets(...) local_unnamed_addr #2

; Function Attrs: argmemonly mustprogress nofree nounwind readonly willreturn
declare i64 @strlen(i8* nocapture) local_unnamed_addr #3

; Function Attrs: nofree nounwind
declare noundef i32 @printf(i8* nocapture noundef readonly, ...) local_unnamed_addr #4

; Function Attrs: argmemonly mustprogress nofree nosync nounwind willreturn
declare void @llvm.lifetime.end.p0i8(i64 immarg, i8* nocapture) #1


!llvm.module.flags = !{!0, !1, !2, !3}
!llvm.ident = !{!4}

!0 = !{i32 1, !"wchar_size", i32 4}
!1 = !{i32 7, !"PIC Level", i32 2}
!2 = !{i32 7, !"PIE Level", i32 2}
!3 = !{i32 7, !"uwtable", i32 1}
!4 = !{!"clang version 13.0.0"}
!5 = !{!6, !6, i64 0}
!6 = !{!"omnipotent char", !7, i64 0}
!7 = !{!"Simple C/C++ TBAA"}
!8 = distinct !{!8, !9}
!9 = !{!"llvm.loop.mustprogress"}
